target datalayout = "e-m:e-p270:32:32-p271:32:32-p272:64:64-i64:64-i128:128-f80:128-n8:16:32:64-S128"
target triple = "x86_64-pc-linux-gnu"

%"class.std::__cxx11::basic_string" = type { %"struct.std::__cxx11::basic_string<char>::_Alloc_hider", i64, %union.anon }
%"struct.std::__cxx11::basic_string<char>::_Alloc_hider" = type { ptr }
%union.anon = type { i64, [8 x i8] }
%"class.rocksdb::Slice" = type { ptr, i64 }
%"class.rocksdb::TruncatedRangeDelIterator" = type { %"class.std::unique_ptr", ptr, ptr, ptr, %"class.std::__cxx11::list", ptr, ptr }
%"class.std::unique_ptr" = type { %"struct.std::__uniq_ptr_data" }
%"struct.std::__uniq_ptr_data" = type { %"class.std::__uniq_ptr_impl" }
%"class.std::__uniq_ptr_impl" = type { %"class.std::tuple" }
%"class.std::tuple" = type { %"struct.std::_Tuple_impl" }
%"struct.std::_Tuple_impl" = type { %"struct.std::_Head_base.4" }
%"struct.std::_Head_base.4" = type { ptr }
%"class.std::__cxx11::list" = type { %"class.std::__cxx11::_List_base" }
%"class.std::__cxx11::_List_base" = type { %"struct.std::__cxx11::_List_base<rocksdb::ParsedInternalKey, std::allocator<rocksdb::ParsedInternalKey>>::_List_impl" }
%"struct.std::__cxx11::_List_base<rocksdb::ParsedInternalKey, std::allocator<rocksdb::ParsedInternalKey>>::_List_impl" = type { %"struct.std::__detail::_List_node_header" }
%"struct.std::__detail::_List_node_header" = type { %"struct.std::__detail::_List_node_base", i64 }
%"struct.std::__detail::_List_node_base" = type { ptr, ptr }
%"struct.rocksdb::ParsedInternalKey" = type <{ %"class.rocksdb::Slice", i64, i8, [7 x i8] }>
%"class.rocksdb::InternalKey" = type { %"class.std::__cxx11::basic_string" }
%"class.rocksdb::FragmentedRangeTombstoneIterator" = type { %"class.rocksdb::InternalIteratorBase", %"struct.rocksdb::FragmentedRangeTombstoneIterator::RangeTombstoneStackStartComparator", %"struct.rocksdb::FragmentedRangeTombstoneIterator::RangeTombstoneStackEndComparator", ptr, ptr, %"class.std::shared_ptr", %"class.std::shared_ptr.16", ptr, i64, i64, ptr, %"class.__gnu_cxx::__normal_iterator", %"class.__gnu_cxx::__normal_iterator.19", %"class.__gnu_cxx::__normal_iterator", %"class.__gnu_cxx::__normal_iterator.19", %"class.rocksdb::InternalKey" }
%"class.rocksdb::InternalIteratorBase" = type { ptr, %"class.rocksdb::Cleanable" }
%"class.rocksdb::Cleanable" = type { %"struct.rocksdb::Cleanable::Cleanup" }
%"struct.rocksdb::Cleanable::Cleanup" = type { ptr, ptr, ptr, ptr }
%"struct.rocksdb::FragmentedRangeTombstoneIterator::RangeTombstoneStackStartComparator" = type { ptr }
%"struct.rocksdb::FragmentedRangeTombstoneIterator::RangeTombstoneStackEndComparator" = type { ptr }
%"class.std::shared_ptr" = type { %"class.std::__shared_ptr" }
%"class.std::__shared_ptr" = type { ptr, %"class.std::__shared_count" }
%"class.std::__shared_count" = type { ptr }
%"class.std::shared_ptr.16" = type { %"class.std::__shared_ptr.17" }
%"class.std::__shared_ptr.17" = type { ptr, %"class.std::__shared_count" }
%"class.__gnu_cxx::__normal_iterator" = type { ptr }
%"class.__gnu_cxx::__normal_iterator.19" = type { ptr }
%"struct.rocksdb::FragmentedRangeTombstoneList::RangeTombstoneStack" = type { %"class.rocksdb::Slice", %"class.rocksdb::Slice", i64, i64 }

@_ZN7rocksdbL18kMaxSequenceNumberE = internal constant i64 72057594037927935, align 8

; Function Attrs: mustprogress nounwind uwtable
define linkonce_odr noundef nonnull align 8 dereferenceable(8) ptr @_ZNSt10_Head_baseILm0EPN7rocksdb32FragmentedRangeTombstoneIteratorELb0EE7_M_headERKS3_(ptr noundef nonnull align 8 dereferenceable(8) %0) #4 comdat align 2 {
  %2 = alloca ptr, align 8
  store ptr %0, ptr %2, align 8, !tbaa !337
  %3 = load ptr, ptr %2, align 8, !tbaa !337
  %4 = getelementptr inbounds nuw %"struct.std::_Head_base.4", ptr %3, i32 0, i32 0
  ret ptr %4
}

; Function Attrs: mustprogress nounwind uwtable
define linkonce_odr noundef nonnull align 8 dereferenceable(8) ptr @_ZNSt11_Tuple_implILm0EJPN7rocksdb32FragmentedRangeTombstoneIteratorESt14default_deleteIS1_EEE7_M_headERKS5_(ptr noundef nonnull align 8 dereferenceable(8) %0) #4 comdat align 2 {
  %2 = alloca ptr, align 8
  store ptr %0, ptr %2, align 8, !tbaa !332
  %3 = load ptr, ptr %2, align 8, !tbaa !332
  %4 = call noundef nonnull align 8 dereferenceable(8) ptr @_ZNSt10_Head_baseILm0EPN7rocksdb32FragmentedRangeTombstoneIteratorELb0EE7_M_headERKS3_(ptr noundef nonnull align 8 dereferenceable(8) %3) #5
  ret ptr %4
}

; Function Attrs: mustprogress nounwind uwtable
define linkonce_odr noundef nonnull align 8 dereferenceable(8) ptr @_ZSt12__get_helperILm0EPN7rocksdb32FragmentedRangeTombstoneIteratorEJSt14default_deleteIS1_EEERKT0_RKSt11_Tuple_implIXT_EJS5_DpT1_EE(ptr noundef nonnull align 8 dereferenceable(8) %0) #4 comdat {
  %2 = alloca ptr, align 8
  store ptr %0, ptr %2, align 8, !tbaa !332
  %3 = load ptr, ptr %2, align 8, !tbaa !332
  %4 = call noundef nonnull align 8 dereferenceable(8) ptr @_ZNSt11_Tuple_implILm0EJPN7rocksdb32FragmentedRangeTombstoneIteratorESt14default_deleteIS1_EEE7_M_headERKS5_(ptr noundef nonnull align 8 dereferenceable(8) %3) #5
  ret ptr %4
}

; Function Attrs: mustprogress nounwind uwtable
define linkonce_odr noundef nonnull align 8 dereferenceable(8) ptr @_ZSt3getILm0EJPN7rocksdb32FragmentedRangeTombstoneIteratorESt14default_deleteIS1_EEERKNSt13tuple_elementIXT_ESt5tupleIJDpT0_EEE4typeERKS9_(ptr noundef nonnull align 8 dereferenceable(8) %0) #4 comdat {
  %2 = alloca ptr, align 8
  store ptr %0, ptr %2, align 8, !tbaa !330
  %3 = load ptr, ptr %2, align 8, !tbaa !330
  %4 = call noundef nonnull align 8 dereferenceable(8) ptr @_ZSt12__get_helperILm0EPN7rocksdb32FragmentedRangeTombstoneIteratorEJSt14default_deleteIS1_EEERKT0_RKSt11_Tuple_implIXT_EJS5_DpT1_EE(ptr noundef nonnull align 8 dereferenceable(8) %3) #5
  ret ptr %4
}

; Function Attrs: mustprogress nounwind uwtable
define linkonce_odr noundef nonnull align 8 dereferenceable(8) ptr @_ZNK9__gnu_cxx17__normal_iteratorIPKmSt6vectorImSaImEEEdeEv(ptr noundef nonnull align 8 dereferenceable(8) %0) #4 comdat align 2 {
  %2 = alloca ptr, align 8
  store ptr %0, ptr %2, align 8, !tbaa !402
  %3 = load ptr, ptr %2, align 8
  %4 = getelementptr inbounds nuw %"class.__gnu_cxx::__normal_iterator.19", ptr %3, i32 0, i32 0
  %5 = load ptr, ptr %4, align 8, !tbaa !404
  ret ptr %5
}

; Function Attrs: mustprogress nounwind uwtable
define linkonce_odr noundef ptr @_ZNKSt15__uniq_ptr_implIN7rocksdb32FragmentedRangeTombstoneIteratorESt14default_deleteIS1_EE6_M_ptrEv(ptr noundef nonnull align 8 dereferenceable(8) %0) #4 comdat align 2 {
  %2 = alloca ptr, align 8
  store ptr %0, ptr %2, align 8, !tbaa !328
  %3 = load ptr, ptr %2, align 8
  %4 = getelementptr inbounds nuw %"class.std::__uniq_ptr_impl", ptr %3, i32 0, i32 0
  %5 = call noundef nonnull align 8 dereferenceable(8) ptr @_ZSt3getILm0EJPN7rocksdb32FragmentedRangeTombstoneIteratorESt14default_deleteIS1_EEERKNSt13tuple_elementIXT_ESt5tupleIJDpT0_EEE4typeERKS9_(ptr noundef nonnull align 8 dereferenceable(8) %4) #5
  %6 = load ptr, ptr %5, align 8, !tbaa !99
  ret ptr %6
}

; Function Attrs: mustprogress nounwind uwtable
define linkonce_odr noundef i64 @_ZNK7rocksdb32FragmentedRangeTombstoneIterator3seqEv(ptr noundef nonnull align 8 dereferenceable(200) %0) #4 comdat align 2 {
  %2 = alloca ptr, align 8
  store ptr %0, ptr %2, align 8, !tbaa !99
  %3 = load ptr, ptr %2, align 8
  %4 = getelementptr inbounds nuw %"class.rocksdb::FragmentedRangeTombstoneIterator", ptr %3, i32 0, i32 12
  %5 = call noundef nonnull align 8 dereferenceable(8) ptr @_ZNK9__gnu_cxx17__normal_iteratorIPKmSt6vectorImSaImEEEdeEv(ptr noundef nonnull align 8 dereferenceable(8) %4) #5
  %6 = load i64, ptr %5, align 8, !tbaa !4
  ret i64 %6
}

; Function Attrs: mustprogress nounwind uwtable
define linkonce_odr void @_ZN7rocksdb17ParsedInternalKeyC2ERKNS_5SliceERKmNS_9ValueTypeE(ptr noundef nonnull align 8 dereferenceable(25) %0, ptr noundef nonnull align 8 dereferenceable(16) %1, ptr noundef nonnull align 8 dereferenceable(8) %2, i8 noundef zeroext %3) unnamed_addr #4 comdat align 2 {
  %5 = alloca ptr, align 8
  %6 = alloca ptr, align 8
  %7 = alloca ptr, align 8
  %8 = alloca i8, align 1
  store ptr %0, ptr %5, align 8, !tbaa !80
  store ptr %1, ptr %6, align 8, !tbaa !10
  store ptr %2, ptr %7, align 8, !tbaa !102
  store i8 %3, ptr %8, align 1, !tbaa !8
  %9 = load ptr, ptr %5, align 8
  %10 = getelementptr inbounds nuw %"struct.rocksdb::ParsedInternalKey", ptr %9, i32 0, i32 0
  %11 = load ptr, ptr %6, align 8, !tbaa !10
  call void @llvm.memcpy.p0.p0.i64(ptr align 8 %10, ptr align 8 %11, i64 16, i1 false), !tbaa.struct !89
  %12 = getelementptr inbounds nuw %"struct.rocksdb::ParsedInternalKey", ptr %9, i32 0, i32 1
  %13 = load ptr, ptr %7, align 8, !tbaa !102
  %14 = load i64, ptr %13, align 8, !tbaa !4
  store i64 %14, ptr %12, align 8, !tbaa !83
  %15 = getelementptr inbounds nuw %"struct.rocksdb::ParsedInternalKey", ptr %9, i32 0, i32 2
  %16 = load i8, ptr %8, align 1, !tbaa !8
  store i8 %16, ptr %15, align 8, !tbaa !81
  ret void
}

; Function Attrs: mustprogress nounwind uwtable
define linkonce_odr noundef ptr @_ZNK9__gnu_cxx17__normal_iteratorIPKN7rocksdb28FragmentedRangeTombstoneList19RangeTombstoneStackESt6vectorIS3_SaIS3_EEEptEv(ptr noundef nonnull align 8 dereferenceable(8) %0) #4 comdat align 2 {
  %2 = alloca ptr, align 8
  store ptr %0, ptr %2, align 8, !tbaa !399
  %3 = load ptr, ptr %2, align 8
  %4 = getelementptr inbounds nuw %"class.__gnu_cxx::__normal_iterator", ptr %3, i32 0, i32 0
  %5 = load ptr, ptr %4, align 8, !tbaa !401
  ret ptr %5
}

; Function Attrs: mustprogress nounwind uwtable
define linkonce_odr noundef ptr @_ZNKSt10unique_ptrIN7rocksdb32FragmentedRangeTombstoneIteratorESt14default_deleteIS1_EE3getEv(ptr noundef nonnull align 8 dereferenceable(8) %0) #4 comdat align 2 {
  %2 = alloca ptr, align 8
  store ptr %0, ptr %2, align 8, !tbaa !54
  %3 = load ptr, ptr %2, align 8
  %4 = getelementptr inbounds nuw %"class.std::unique_ptr", ptr %3, i32 0, i32 0
  %5 = call noundef ptr @_ZNKSt15__uniq_ptr_implIN7rocksdb32FragmentedRangeTombstoneIteratorESt14default_deleteIS1_EE6_M_ptrEv(ptr noundef nonnull align 8 dereferenceable(8) %4) #5
  ret ptr %5
}

; Function Attrs: mustprogress uwtable
define linkonce_odr void @_ZNK7rocksdb32FragmentedRangeTombstoneIterator16parsed_start_keyEv(ptr dead_on_unwind noalias writable sret(%"struct.rocksdb::ParsedInternalKey") align 8 %0, ptr noundef nonnull align 8 dereferenceable(200) %1) #6 comdat align 2 {
  %3 = alloca ptr, align 8
  %4 = alloca i64, align 8
  store ptr %1, ptr %3, align 8, !tbaa !99
  %5 = load ptr, ptr %3, align 8
  %6 = getelementptr inbounds nuw %"class.rocksdb::FragmentedRangeTombstoneIterator", ptr %5, i32 0, i32 11
  %7 = call noundef ptr @_ZNK9__gnu_cxx17__normal_iteratorIPKN7rocksdb28FragmentedRangeTombstoneList19RangeTombstoneStackESt6vectorIS3_SaIS3_EEEptEv(ptr noundef nonnull align 8 dereferenceable(8) %6) #5
  %8 = getelementptr inbounds nuw %"struct.rocksdb::FragmentedRangeTombstoneList::RangeTombstoneStack", ptr %7, i32 0, i32 0
  call void @llvm.lifetime.start.p0(i64 8, ptr %4) #5
  %9 = call noundef i64 @_ZNK7rocksdb32FragmentedRangeTombstoneIterator3seqEv(ptr noundef nonnull align 8 dereferenceable(200) %5)
  store i64 %9, ptr %4, align 8, !tbaa !4
  call void @_ZN7rocksdb17ParsedInternalKeyC2ERKNS_5SliceERKmNS_9ValueTypeE(ptr noundef nonnull align 8 dereferenceable(25) %0, ptr noundef nonnull align 8 dereferenceable(16) %8, ptr noundef nonnull align 8 dereferenceable(8) %4, i8 noundef zeroext 15)
  call void @llvm.lifetime.end.p0(i64 8, ptr %4) #5
  ret void
}

; Function Attrs: mustprogress uwtable
define linkonce_odr void @_ZNK7rocksdb32FragmentedRangeTombstoneIterator14parsed_end_keyEv(ptr dead_on_unwind noalias writable sret(%"struct.rocksdb::ParsedInternalKey") align 8 %0, ptr noundef nonnull align 8 dereferenceable(200) %1) #6 comdat align 2 {
  %3 = alloca ptr, align 8
  store ptr %1, ptr %3, align 8, !tbaa !99
  %4 = load ptr, ptr %3, align 8
  %5 = getelementptr inbounds nuw %"class.rocksdb::FragmentedRangeTombstoneIterator", ptr %4, i32 0, i32 11
  %6 = call noundef ptr @_ZNK9__gnu_cxx17__normal_iteratorIPKN7rocksdb28FragmentedRangeTombstoneList19RangeTombstoneStackESt6vectorIS3_SaIS3_EEEptEv(ptr noundef nonnull align 8 dereferenceable(8) %5) #5
  %7 = getelementptr inbounds nuw %"struct.rocksdb::FragmentedRangeTombstoneList::RangeTombstoneStack", ptr %6, i32 0, i32 1
  call void @_ZN7rocksdb17ParsedInternalKeyC2ERKNS_5SliceERKmNS_9ValueTypeE(ptr noundef nonnull align 8 dereferenceable(25) %0, ptr noundef nonnull align 8 dereferenceable(16) %7, ptr noundef nonnull align 8 dereferenceable(8) @_ZN7rocksdbL18kMaxSequenceNumberE, i8 noundef zeroext 15)
  ret void
}

; Function Attrs: mustprogress nounwind uwtable
define linkonce_odr noundef ptr @_ZNKSt10unique_ptrIN7rocksdb32FragmentedRangeTombstoneIteratorESt14default_deleteIS1_EEptEv(ptr noundef nonnull align 8 dereferenceable(8) %0) #4 comdat align 2 {
  %2 = alloca ptr, align 8
  store ptr %0, ptr %2, align 8, !tbaa !54
  %3 = load ptr, ptr %2, align 8
  %4 = call noundef ptr @_ZNKSt10unique_ptrIN7rocksdb32FragmentedRangeTombstoneIteratorESt14default_deleteIS1_EE3getEv(ptr noundef nonnull align 8 dereferenceable(8) %3) #5
  ret ptr %4
}

; Function Attrs: mustprogress uwtable
define noundef zeroext i1 @_ZNK7rocksdb25TruncatedRangeDelIterator5ValidEv(ptr noundef nonnull align 8 dereferenceable(72) %0) #6 align 2 {
  %2 = alloca ptr, align 8
  %3 = alloca %"struct.rocksdb::ParsedInternalKey", align 8
  %4 = alloca %"struct.rocksdb::ParsedInternalKey", align 8
  store ptr %0, ptr %2, align 8, !tbaa !52
  %5 = load ptr, ptr %2, align 8
  %6 = getelementptr inbounds nuw %"class.rocksdb::TruncatedRangeDelIterator", ptr %5, i32 0, i32 0
  %7 = call noundef ptr @_ZNKSt10unique_ptrIN7rocksdb32FragmentedRangeTombstoneIteratorESt14default_deleteIS1_EEptEv(ptr noundef nonnull align 8 dereferenceable(8) %6) #5
  %8 = load ptr, ptr %7, align 8, !tbaa !100
  %9 = getelementptr inbounds ptr, ptr %8, i64 3
  %10 = load ptr, ptr %9, align 8
  %11 = call noundef zeroext i1 %10(ptr noundef nonnull align 8 dereferenceable(200) %7)
  call void @llvm.lifetime.start.p0(i64 32, ptr %3) #5
  call void @llvm.lifetime.start.p0(i64 32, ptr %4) #5
  br i1 %11, label %12, label %40

12:                                               ; preds = %1
  %13 = getelementptr inbounds nuw %"class.rocksdb::TruncatedRangeDelIterator", ptr %5, i32 0, i32 2
  %14 = load ptr, ptr %13, align 8, !tbaa !76
  %15 = icmp eq ptr %14, null
  br i1 %15, label %25, label %16

16:                                               ; preds = %12
  %17 = getelementptr inbounds nuw %"class.rocksdb::TruncatedRangeDelIterator", ptr %5, i32 0, i32 1
  %18 = load ptr, ptr %17, align 8, !tbaa !60
  %19 = getelementptr inbounds nuw %"class.rocksdb::TruncatedRangeDelIterator", ptr %5, i32 0, i32 2
  %20 = load ptr, ptr %19, align 8, !tbaa !76
  %21 = getelementptr inbounds nuw %"class.rocksdb::TruncatedRangeDelIterator", ptr %5, i32 0, i32 0
  %22 = call noundef ptr @_ZNKSt10unique_ptrIN7rocksdb32FragmentedRangeTombstoneIteratorESt14default_deleteIS1_EEptEv(ptr noundef nonnull align 8 dereferenceable(8) %21) #5
  call void @_ZNK7rocksdb32FragmentedRangeTombstoneIterator14parsed_end_keyEv(ptr dead_on_unwind writable sret(%"struct.rocksdb::ParsedInternalKey") align 8 %3, ptr noundef nonnull align 8 dereferenceable(200) %22)
  %23 = call noundef i32 @_ZNK7rocksdb21InternalKeyComparator7CompareERKNS_17ParsedInternalKeyES3_(ptr noundef nonnull align 8 dereferenceable(16) %18, ptr noundef nonnull align 8 dereferenceable(25) %20, ptr noundef nonnull align 8 dereferenceable(25) %3)
  %24 = icmp slt i32 %23, 0
  br i1 %24, label %25, label %40

25:                                               ; preds = %16, %12
  %26 = getelementptr inbounds nuw %"class.rocksdb::TruncatedRangeDelIterator", ptr %5, i32 0, i32 3
  %27 = load ptr, ptr %26, align 8, !tbaa !77
  %28 = icmp eq ptr %27, null
  br i1 %28, label %38, label %29

29:                                               ; preds = %25
  %30 = getelementptr inbounds nuw %"class.rocksdb::TruncatedRangeDelIterator", ptr %5, i32 0, i32 1
  %31 = load ptr, ptr %30, align 8, !tbaa !60
  %32 = getelementptr inbounds nuw %"class.rocksdb::TruncatedRangeDelIterator", ptr %5, i32 0, i32 0
  %33 = call noundef ptr @_ZNKSt10unique_ptrIN7rocksdb32FragmentedRangeTombstoneIteratorESt14default_deleteIS1_EEptEv(ptr noundef nonnull align 8 dereferenceable(8) %32) #5
  call void @_ZNK7rocksdb32FragmentedRangeTombstoneIterator16parsed_start_keyEv(ptr dead_on_unwind writable sret(%"struct.rocksdb::ParsedInternalKey") align 8 %4, ptr noundef nonnull align 8 dereferenceable(200) %33)
  %34 = getelementptr inbounds nuw %"class.rocksdb::TruncatedRangeDelIterator", ptr %5, i32 0, i32 3
  %35 = load ptr, ptr %34, align 8, !tbaa !77
  %36 = call noundef i32 @_ZNK7rocksdb21InternalKeyComparator7CompareERKNS_17ParsedInternalKeyES3_(ptr noundef nonnull align 8 dereferenceable(16) %31, ptr noundef nonnull align 8 dereferenceable(25) %4, ptr noundef nonnull align 8 dereferenceable(25) %35)
  %37 = icmp slt i32 %36, 0
  br label %38

38:                                               ; preds = %29, %25
  %39 = phi i1 [ true, %25 ], [ %37, %29 ]
  br label %40

40:                                               ; preds = %38, %16, %1
  %41 = phi i1 [ false, %16 ], [ false, %1 ], [ %39, %38 ]
  call void @llvm.lifetime.end.p0(i64 32, ptr %4) #5
  call void @llvm.lifetime.end.p0(i64 32, ptr %3) #5
  ret i1 %41
}