; Function Attrs: mustprogress uwtable
define noundef zeroext i1 @_ZNK7rocksdb25TruncatedRangeDelIterator5ValidEv(ptr noundef nonnull readonly align 8 captures(none) dereferenceable(72) %0) local_unnamed_addr #4 align 2 {
  %2 = alloca %"struct.rocksdb::ParsedInternalKey", align 8
  %3 = alloca %"struct.rocksdb::ParsedInternalKey", align 8
  %4 = load ptr, ptr %0, align 8, !tbaa !18
  %5 = load ptr, ptr %4, align 8, !tbaa !55
  %6 = getelementptr inbounds nuw i8, ptr %5, i64 24
  %7 = load ptr, ptr %6, align 8
  %8 = tail call noundef zeroext i1 %7(ptr noundef nonnull align 8 dereferenceable(200) %4)
  call void @llvm.lifetime.start.p0(i64 32, ptr nonnull %2) #28
  call void @llvm.lifetime.start.p0(i64 32, ptr nonnull %3) #28
  br i1 %8, label %9, label %41

9:                                                ; preds = %1
  %10 = getelementptr inbounds nuw i8, ptr %0, i64 16
  %11 = load ptr, ptr %10, align 8, !tbaa !50
  %12 = icmp eq ptr %11, null
  br i1 %12, label %24, label %13

13:                                               ; preds = %9
  %14 = getelementptr inbounds nuw i8, ptr %0, i64 8
  %15 = load ptr, ptr %14, align 8, !tbaa !20
  %16 = load ptr, ptr %0, align 8, !tbaa !18
  tail call void @llvm.experimental.noalias.scope.decl(metadata !73)
  %17 = getelementptr inbounds nuw i8, ptr %16, i64 136
  %18 = load ptr, ptr %17, align 8, !tbaa !76, !noalias !73
  %19 = getelementptr inbounds nuw i8, ptr %18, i64 16
  call void @llvm.memcpy.p0.p0.i64(ptr noundef nonnull align 8 dereferenceable(25) %2, ptr noundef nonnull align 8 dereferenceable(16) %19, i64 16, i1 false), !tbaa.struct !79
  %20 = getelementptr inbounds nuw i8, ptr %2, i64 16
  store i64 72057594037927935, ptr %20, align 8, !tbaa !45, !alias.scope !73
  %21 = getelementptr inbounds nuw i8, ptr %2, i64 24
  store i8 15, ptr %21, align 8, !tbaa !48, !alias.scope !73
  %22 = call noundef i32 @_ZNK7rocksdb21InternalKeyComparator7CompareERKNS_17ParsedInternalKeyES3_(ptr noundef nonnull align 8 dereferenceable(16) %15, ptr noundef nonnull align 8 dereferenceable(25) %11, ptr noundef nonnull align 8 dereferenceable(25) %2)
  %23 = icmp slt i32 %22, 0
  br i1 %23, label %24, label %41

24:                                               ; preds = %13, %9
  %25 = getelementptr inbounds nuw i8, ptr %0, i64 24
  %26 = load ptr, ptr %25, align 8, !tbaa !52
  %27 = icmp eq ptr %26, null
  br i1 %27, label %41, label %28

28:                                               ; preds = %24
  %29 = getelementptr inbounds nuw i8, ptr %0, i64 8
  %30 = load ptr, ptr %29, align 8, !tbaa !20
  %31 = load ptr, ptr %0, align 8, !tbaa !18
  call void @llvm.experimental.noalias.scope.decl(metadata !80)
  %32 = getelementptr inbounds nuw i8, ptr %31, i64 136
  %33 = load ptr, ptr %32, align 8, !tbaa !76, !noalias !80
  %34 = getelementptr inbounds nuw i8, ptr %31, i64 144
  %35 = load ptr, ptr %34, align 8, !tbaa !83, !noalias !80
  %36 = load i64, ptr %35, align 8, !tbaa !67, !noalias !80
  call void @llvm.memcpy.p0.p0.i64(ptr noundef nonnull align 8 dereferenceable(25) %3, ptr noundef nonnull align 8 dereferenceable(16) %33, i64 16, i1 false), !tbaa.struct !79
  %37 = getelementptr inbounds nuw i8, ptr %3, i64 16
  store i64 %36, ptr %37, align 8, !tbaa !45, !alias.scope !80
  %38 = getelementptr inbounds nuw i8, ptr %3, i64 24
  store i8 15, ptr %38, align 8, !tbaa !48, !alias.scope !80
  %39 = call noundef i32 @_ZNK7rocksdb21InternalKeyComparator7CompareERKNS_17ParsedInternalKeyES3_(ptr noundef nonnull align 8 dereferenceable(16) %30, ptr noundef nonnull align 8 dereferenceable(25) %3, ptr noundef nonnull align 8 dereferenceable(25) %26)
  %40 = icmp slt i32 %39, 0
  br label %41

41:                                               ; preds = %24, %28, %13, %1
  %42 = phi i1 [ false, %13 ], [ false, %1 ], [ true, %24 ], [ %40, %28 ]
  call void @llvm.lifetime.end.p0(i64 32, ptr nonnull %3) #28
  call void @llvm.lifetime.end.p0(i64 32, ptr nonnull %2) #28
  ret i1 %42
}